; Function Attrs: mustprogress nofree norecurse nosync nounwind memory(read, argmem: readwrite, inaccessiblemem: none) uwtable
define void @_Z8sum_epotRK17gmx_grppairener_tPf(ptr nocapture noundef nonnull readonly align 8 dereferenceable(128) %0, ptr nocapture noundef %1) local_unnamed_addr #9 {
  %3 = load i32, ptr %0, align 8
  %4 = getelementptr inbounds i8, ptr %0, i64 8
  %5 = load ptr, ptr %4, align 8
  %6 = icmp sgt i32 %3, 0
  br i1 %6, label %.lr.ph.preheader.i, label %_ZL5sum_viN3gmx8ArrayRefIKfEE.exit

.lr.ph.preheader.i:                               ; preds = %2
  %wide.trip.count.i = zext nneg i32 %3 to i64
  br label %.lr.ph.i

.lr.ph.i:                                         ; preds = %.lr.ph.i, %.lr.ph.preheader.i
  %indvars.iv.i = phi i64 [ 0, %.lr.ph.preheader.i ], [ %indvars.iv.next.i, %.lr.ph.i ]
  %.056.i = phi float [ 0.000000e+00, %.lr.ph.preheader.i ], [ %9, %.lr.ph.i ]
  %7 = getelementptr inbounds float, ptr %5, i64 %indvars.iv.i
  %8 = load float, ptr %7, align 4
  %9 = fadd float %.056.i, %8
  %indvars.iv.next.i = add nuw nsw i64 %indvars.iv.i, 1
  %exitcond.not.i = icmp eq i64 %indvars.iv.next.i, %wide.trip.count.i
  br i1 %exitcond.not.i, label %_ZL5sum_viN3gmx8ArrayRefIKfEE.exit, label %.lr.ph.i, !llvm.loop !8

_ZL5sum_viN3gmx8ArrayRefIKfEE.exit:               ; preds = %.lr.ph.i, %2
  %.05.lcssa.i = phi float [ 0.000000e+00, %2 ], [ %9, %.lr.ph.i ]
  %10 = getelementptr inbounds i8, ptr %1, i64 168
  store float %.05.lcssa.i, ptr %10, align 4
  %11 = load i32, ptr %0, align 8
  %12 = getelementptr inbounds i8, ptr %0, i64 32
  %13 = load ptr, ptr %12, align 8
  %14 = icmp sgt i32 %11, 0
  br i1 %14, label %.lr.ph.preheader.i24, label %_ZL5sum_viN3gmx8ArrayRefIKfEE.exit31

.lr.ph.preheader.i24:                             ; preds = %_ZL5sum_viN3gmx8ArrayRefIKfEE.exit
  %wide.trip.count.i25 = zext nneg i32 %11 to i64
  br label %.lr.ph.i26

.lr.ph.i26:                                       ; preds = %.lr.ph.i26, %.lr.ph.preheader.i24
  %indvars.iv.i27 = phi i64 [ 0, %.lr.ph.preheader.i24 ], [ %indvars.iv.next.i29, %.lr.ph.i26 ]
  %.056.i28 = phi float [ 0.000000e+00, %.lr.ph.preheader.i24 ], [ %17, %.lr.ph.i26 ]
  %15 = getelementptr inbounds float, ptr %13, i64 %indvars.iv.i27
  %16 = load float, ptr %15, align 4
  %17 = fadd float %.056.i28, %16
  %indvars.iv.next.i29 = add nuw nsw i64 %indvars.iv.i27, 1
  %exitcond.not.i30 = icmp eq i64 %indvars.iv.next.i29, %wide.trip.count.i25
  br i1 %exitcond.not.i30, label %_ZL5sum_viN3gmx8ArrayRefIKfEE.exit31, label %.lr.ph.i26, !llvm.loop !8

_ZL5sum_viN3gmx8ArrayRefIKfEE.exit31:             ; preds = %.lr.ph.i26, %_ZL5sum_viN3gmx8ArrayRefIKfEE.exit
  %.05.lcssa.i23 = phi float [ 0.000000e+00, %_ZL5sum_viN3gmx8ArrayRefIKfEE.exit ], [ %17, %.lr.ph.i26 ]
  %18 = getelementptr inbounds i8, ptr %1, i64 148
  store float %.05.lcssa.i23, ptr %18, align 4
  %19 = load i32, ptr %0, align 8
  %20 = getelementptr inbounds i8, ptr %0, i64 104
  %21 = load ptr, ptr %20, align 8
  %22 = icmp sgt i32 %19, 0
  br i1 %22, label %.lr.ph.preheader.i33, label %_ZL5sum_viN3gmx8ArrayRefIKfEE.exit40

.lr.ph.preheader.i33:                             ; preds = %_ZL5sum_viN3gmx8ArrayRefIKfEE.exit31
  %wide.trip.count.i34 = zext nneg i32 %19 to i64
  br label %.lr.ph.i35

.lr.ph.i35:                                       ; preds = %.lr.ph.i35, %.lr.ph.preheader.i33
  %indvars.iv.i36 = phi i64 [ 0, %.lr.ph.preheader.i33 ], [ %indvars.iv.next.i38, %.lr.ph.i35 ]
  %.056.i37 = phi float [ 0.000000e+00, %.lr.ph.preheader.i33 ], [ %25, %.lr.ph.i35 ]
  %23 = getelementptr inbounds float, ptr %21, i64 %indvars.iv.i36
  %24 = load float, ptr %23, align 4
  %25 = fadd float %.056.i37, %24
  %indvars.iv.next.i38 = add nuw nsw i64 %indvars.iv.i36, 1
  %exitcond.not.i39 = icmp eq i64 %indvars.iv.next.i38, %wide.trip.count.i34
  br i1 %exitcond.not.i39, label %_ZL5sum_viN3gmx8ArrayRefIKfEE.exit40, label %.lr.ph.i35, !llvm.loop !8

_ZL5sum_viN3gmx8ArrayRefIKfEE.exit40:             ; preds = %.lr.ph.i35, %_ZL5sum_viN3gmx8ArrayRefIKfEE.exit31
  %.05.lcssa.i32 = phi float [ 0.000000e+00, %_ZL5sum_viN3gmx8ArrayRefIKfEE.exit31 ], [ %25, %.lr.ph.i35 ]
  %26 = getelementptr inbounds i8, ptr %1, i64 132
  store float %.05.lcssa.i32, ptr %26, align 4
  %27 = load i32, ptr %0, align 8
  %28 = getelementptr inbounds i8, ptr %0, i64 80
  %29 = load ptr, ptr %28, align 8
  %30 = icmp sgt i32 %27, 0
  br i1 %30, label %.lr.ph.preheader.i42, label %_ZL5sum_viN3gmx8ArrayRefIKfEE.exit49

.lr.ph.preheader.i42:                             ; preds = %_ZL5sum_viN3gmx8ArrayRefIKfEE.exit40
  %wide.trip.count.i43 = zext nneg i32 %27 to i64
  br label %.lr.ph.i44

.lr.ph.i44:                                       ; preds = %.lr.ph.i44, %.lr.ph.preheader.i42
  %indvars.iv.i45 = phi i64 [ 0, %.lr.ph.preheader.i42 ], [ %indvars.iv.next.i47, %.lr.ph.i44 ]
  %.056.i46 = phi float [ 0.000000e+00, %.lr.ph.preheader.i42 ], [ %33, %.lr.ph.i44 ]
  %31 = getelementptr inbounds float, ptr %29, i64 %indvars.iv.i45
  %32 = load float, ptr %31, align 4
  %33 = fadd float %.056.i46, %32
  %indvars.iv.next.i47 = add nuw nsw i64 %indvars.iv.i45, 1
  %exitcond.not.i48 = icmp eq i64 %indvars.iv.next.i47, %wide.trip.count.i43
  br i1 %exitcond.not.i48, label %_ZL5sum_viN3gmx8ArrayRefIKfEE.exit49, label %.lr.ph.i44, !llvm.loop !8

_ZL5sum_viN3gmx8ArrayRefIKfEE.exit49:             ; preds = %.lr.ph.i44, %_ZL5sum_viN3gmx8ArrayRefIKfEE.exit40
  %.05.lcssa.i41 = phi float [ 0.000000e+00, %_ZL5sum_viN3gmx8ArrayRefIKfEE.exit40 ], [ %33, %.lr.ph.i44 ]
  %34 = getelementptr inbounds i8, ptr %1, i64 136
  store float %.05.lcssa.i41, ptr %34, align 4
  %35 = load i32, ptr %0, align 8
  %36 = getelementptr inbounds i8, ptr %0, i64 56
  %37 = load ptr, ptr %36, align 8
  %38 = icmp sgt i32 %35, 0
  br i1 %38, label %.lr.ph.preheader.i51, label %_ZL5sum_viN3gmx8ArrayRefIKfEE.exit58

.lr.ph.preheader.i51:                             ; preds = %_ZL5sum_viN3gmx8ArrayRefIKfEE.exit49
  %wide.trip.count.i52 = zext nneg i32 %35 to i64
  br label %.lr.ph.i53

.lr.ph.i53:                                       ; preds = %.lr.ph.i53, %.lr.ph.preheader.i51
  %indvars.iv.i54 = phi i64 [ 0, %.lr.ph.preheader.i51 ], [ %indvars.iv.next.i56, %.lr.ph.i53 ]
  %.056.i55 = phi float [ 0.000000e+00, %.lr.ph.preheader.i51 ], [ %41, %.lr.ph.i53 ]
  %39 = getelementptr inbounds float, ptr %37, i64 %indvars.iv.i54
  %40 = load float, ptr %39, align 4
  %41 = fadd float %.056.i55, %40
  %indvars.iv.next.i56 = add nuw nsw i64 %indvars.iv.i54, 1
  %exitcond.not.i57 = icmp eq i64 %indvars.iv.next.i56, %wide.trip.count.i52
  br i1 %exitcond.not.i57, label %_ZL5sum_viN3gmx8ArrayRefIKfEE.exit58, label %.lr.ph.i53, !llvm.loop !8

_ZL5sum_viN3gmx8ArrayRefIKfEE.exit58:             ; preds = %.lr.ph.i53, %_ZL5sum_viN3gmx8ArrayRefIKfEE.exit49
  %.05.lcssa.i50 = phi float [ 0.000000e+00, %_ZL5sum_viN3gmx8ArrayRefIKfEE.exit49 ], [ %41, %.lr.ph.i53 ]
  %42 = getelementptr inbounds i8, ptr %1, i64 152
  store float %.05.lcssa.i50, ptr %42, align 4
  %43 = getelementptr inbounds i8, ptr %1, i64 312
  store float 0.000000e+00, ptr %43, align 4
  br label %44

44:                                               ; preds = %_ZL5sum_viN3gmx8ArrayRefIKfEE.exit58, %51
  %45 = phi float [ 0.000000e+00, %_ZL5sum_viN3gmx8ArrayRefIKfEE.exit58 ], [ %52, %51 ]
  %indvars.iv = phi i64 [ 0, %_ZL5sum_viN3gmx8ArrayRefIKfEE.exit58 ], [ %indvars.iv.next, %51 ]
  %46 = trunc nuw nsw i64 %indvars.iv to i32
  switch i32 %46, label %47 [
    i32 57, label %51
    i32 55, label %51
  ]

47:                                               ; preds = %44
  %48 = getelementptr inbounds float, ptr %1, i64 %indvars.iv
  %49 = load float, ptr %48, align 4
  %50 = fadd float %49, %45
  store float %50, ptr %43, align 4
  br label %51

51:                                               ; preds = %44, %44, %47
  %52 = phi float [ %45, %44 ], [ %45, %44 ], [ %50, %47 ]
  %indvars.iv.next = add nuw nsw i64 %indvars.iv, 1
  %exitcond.not = icmp eq i64 %indvars.iv.next, 78
  br i1 %exitcond.not, label %53, label %44, !llvm.loop !9

53:                                               ; preds = %51
  ret void
}